ccopy_reg
_reconstructor
p0
(ctinyec.ec
Keypair
p1
c__builtin__
object
p2
Ntp3
Rp4
(dp5
S'priv'
p6
L11019148241750542412607608886949170969015109735593594935008917041425407070993L
sS'curve'
p7
g0
(ctinyec.ec
Curve
p8
g2
Ntp9
Rp10
(dp11
S'a'
p12
L115792089210356248762697446949407573530086143415290314195533631308867097853948L
sS'field'
p13
g0
(ctinyec.ec
SubGroup
p14
g2
Ntp15
Rp16
(dp17
S'p'
p18
L115792089210356248762697446949407573530086143415290314195533631308867097853951L
sS'h'
p19
I1
sS'g'
p20
(L48439561293906451759052585252797914202762949526041747995844080717082404635286L
L36134250956749795798585127919587881956611106672985015071877198253568414405109L
tp21
sS'n'
p22
L115792089210356248762697446949407573529996955224135760342422259061068512044369L
sbsS'b'
p23
L41058363725152142129326129780047268409114441015993725554835256314039467401291L
sS'name'
p24
S'secp256r1'
p25
sg20
g0
(ctinyec.ec
Point
p26
g2
Ntp27
Rp28
(dp29
S'y'
p30
L36134250956749795798585127919587881956611106672985015071877198253568414405109L
sS'x'
p31
L48439561293906451759052585252797914202762949526041747995844080717082404635286L
sS'on_curve'
p32
I01
sg7
g10
sg18
L115792089210356248762697446949407573530086143415290314195533631308867097853951L
sbsbsS'pub'
p33
g0
(g26
g2
Ntp34
Rp35
(dp36
g30
L64670011254532903284641879287833684726655575662154142976852793368151798385741L
sg31
L32882917510002222300395729968688984504030989550165703942240719520087916517706L
sg32
I01
sg7
g10
sg18
L115792089210356248762697446949407573530086143415290314195533631308867097853951L
sbsS'can_sign'
p37
I01
sS'can_encrypt'
p38
I01
sb.